target datalayout = "e-m:e-p270:32:32-p271:32:32-p272:64:64-i64:64-i128:128-f80:128-n8:16:32:64-S128"
target triple = "x86_64-pc-linux-gnu"

%struct.MPVEncContext = type { %struct.MpegEncContext, %struct.PutBitContext, i32, i32, ptr, i32, i32, i32, i32, i32, i32, i32, i32, ptr, ptr, %struct.FDCTDSPContext, %struct.MpegvideoEncDSPContext, %struct.PixblockDSPContext, %struct.MotionEstContext, i32, i32, ptr, ptr, ptr, ptr, ptr, ptr, [2 x [2 x [2 x ptr]]], [2 x ptr], [2 x [2 x ptr]], ptr, ptr, ptr, ptr, [3 x i64], i32, i32, i32, i32, i32, ptr, ptr, ptr, ptr, ptr, ptr, ptr, [12 x i32], ptr, ptr, ptr, ptr, ptr, ptr, ptr, ptr, [2 x i32], ptr, i32, i32, i32, i32, i32, i32, i32, i32, i32, i32, ptr, ptr, i32, i32, %struct.PutBitContext, %struct.PutBitContext, i32, i32, i32, i32, ptr, ptr, ptr, [2 x ptr], [2 x ptr], [2 x ptr], [2 x ptr], ptr, i32 }
%struct.MpegEncContext = type { ptr, i32, i32, i32, [12 x i32], i32, %struct.ScanTable, %struct.ScanTable, [64 x i8], [64 x i8], ptr, ptr, i32, i32, i32, i32, i32, i32, i32, i32, i32, i32, i32, i32, i32, i32, i32, i32, i32, i32, i32, i32, i64, i64, ptr, %struct.BufferPoolContext, i32, i32, %union.anon.2, i32, %struct.MPVWorkPicture, %struct.MPVWorkPicture, %struct.MPVWorkPicture, i32, [3 x i32], ptr, [3 x ptr], ptr, ptr, ptr, ptr, ptr, ptr, [3 x ptr], i32, ptr, ptr, ptr, ptr, %struct.ScratchpadContext, i32, i32, i32, i32, i32, i32, %struct.BlockDSPContext, %struct.H264ChromaContext, %struct.HpelDSPContext, %struct.IDCTDSPContext, %struct.QpelDSPContext, %struct.VideoDSPContext, %struct.H263DSPContext, ptr, [2 x [2 x ptr]], i32, i32, [2 x [4 x [2 x i32]]], [2 x [2 x i32]], [2 x [2 x [2 x i32]]], [2 x [64 x i16]], i32, i32, i32, i32, i32, [6 x i32], [6 x i32], [3 x ptr], ptr, [64 x i16], [64 x i16], [64 x i16], [64 x i16], i32, i32, %struct.GetBitContext, i32, i32, i32, i32, i32, i32, i32, i32, i32, i32, i32, i32, i32, i32, i32, i64, i64, i16, i16, i16, i16, i32, i32, i32, i32, i32, i32, i32, i32, i32, [3 x i32], i32, i32, i32, i32, i32, i32, %struct.GetBitContext, i32, [2 x [2 x i32]], i32, i32, i32, i32, i32, i32, i32, i32, i32, i32, i32, i32, i32, i32, [2 x i32], i32, i32, ptr, ptr, ptr, ptr, ptr, i32, i32, %struct.ERContext }
%struct.ScanTable = type { ptr, [64 x i8], [64 x i8] }
%struct.BufferPoolContext = type { ptr, ptr, ptr, ptr, ptr, i32, i32, i32 }
%union.anon.2 = type { [32 x ptr] }
%struct.MPVWorkPicture = type { [3 x ptr], [3 x i64], ptr, ptr, [2 x ptr], ptr, ptr, [2 x ptr], i32 }
%struct.ScratchpadContext = type { ptr, ptr, %union.anon.3, i32 }
%union.anon.3 = type { ptr }
%struct.BlockDSPContext = type { ptr, ptr, [2 x ptr] }
%struct.H264ChromaContext = type { [4 x ptr], [4 x ptr] }
%struct.HpelDSPContext = type { [4 x [4 x ptr]], [4 x [4 x ptr]], [4 x [4 x ptr]], [4 x ptr] }
%struct.IDCTDSPContext = type { ptr, ptr, ptr, ptr, ptr, ptr, [64 x i8], i32, i32 }
%struct.QpelDSPContext = type { [2 x [16 x ptr]], [2 x [16 x ptr]], [2 x [16 x ptr]] }
%struct.VideoDSPContext = type { ptr, ptr }
%struct.H263DSPContext = type { ptr, ptr }
%struct.GetBitContext = type { ptr, ptr, i32, i32, i32 }
%struct.ERContext = type { ptr, ptr, i32, ptr, i32, i32, i32, i64, i64, i32, i32, ptr, ptr, [3 x ptr], ptr, ptr, [2 x [4 x [2 x i32]]], %struct.ERPicture, %struct.ERPicture, %struct.ERPicture, [2 x ptr], [2 x ptr], i16, i16, i32, i32, ptr, ptr }
%struct.ERPicture = type { ptr, ptr, ptr, [2 x ptr], [2 x ptr], ptr, i32 }
%struct.FDCTDSPContext = type { ptr, ptr }
%struct.MpegvideoEncDSPContext = type { ptr, ptr, ptr, ptr, [4 x ptr], ptr }
%struct.PixblockDSPContext = type { ptr, ptr, ptr, ptr }
%struct.MotionEstContext = type { ptr, i32, i32, [4 x [2 x i32]], [4 x [2 x i32]], ptr, ptr, i32, i32, i32, i32, i32, i32, i32, i32, i32, i32, i32, i32, i32, i32, i32, i32, [4 x [4 x ptr]], [4 x [4 x ptr]], i32, i32, i64, i64, i32, [6 x ptr], [6 x ptr], [6 x ptr], [6 x ptr], [2 x [4 x ptr]], ptr, ptr, ptr, ptr, ptr, ptr, ptr, ptr, [64 x i32], [64 x i32] }
%struct.PutBitContext = type { i32, i32, ptr, ptr, ptr }

; Function Attrs: nounwind uwtable
define internal i32 @dnxhd_10bit_dct_quantize_444(ptr noundef %0, ptr noundef %1, i32 noundef %2, i32 noundef %3, ptr noundef %4) #1 {
  %6 = alloca ptr, align 8
  %7 = alloca ptr, align 8
  %8 = alloca i32, align 4
  %9 = alloca i32, align 4
  %10 = alloca ptr, align 8
  %11 = alloca i32, align 4
  %12 = alloca i32, align 4
  %13 = alloca i32, align 4
  %14 = alloca i32, align 4
  %15 = alloca i32, align 4
  %16 = alloca ptr, align 8
  %17 = alloca ptr, align 8
  %18 = alloca i32, align 4
  %19 = alloca i32, align 4
  %20 = alloca i32, align 4
  %21 = alloca i32, align 4
  store ptr %0, ptr %6, align 8, !tbaa !121
  store ptr %1, ptr %7, align 8, !tbaa !123
  store i32 %2, ptr %8, align 4, !tbaa !93
  store i32 %3, ptr %9, align 4, !tbaa !93
  store ptr %4, ptr %10, align 8, !tbaa !108
  call void @llvm.lifetime.start.p0(i64 4, ptr %11) #10
  call void @llvm.lifetime.start.p0(i64 4, ptr %12) #10
  call void @llvm.lifetime.start.p0(i64 4, ptr %13) #10
  call void @llvm.lifetime.start.p0(i64 4, ptr %14) #10
  call void @llvm.lifetime.start.p0(i64 4, ptr %15) #10
  call void @llvm.lifetime.start.p0(i64 8, ptr %16) #10
  call void @llvm.lifetime.start.p0(i64 8, ptr %17) #10
  %22 = load ptr, ptr %6, align 8, !tbaa !121
  %23 = getelementptr inbounds nuw %struct.MPVEncContext, ptr %22, i32 0, i32 0
  %24 = getelementptr inbounds nuw %struct.MpegEncContext, ptr %23, i32 0, i32 7
  %25 = getelementptr inbounds nuw %struct.ScanTable, ptr %24, i32 0, i32 0
  %26 = load ptr, ptr %25, align 8, !tbaa !124
  store ptr %26, ptr %17, align 8, !tbaa !111
  call void @llvm.lifetime.start.p0(i64 4, ptr %18) #10
  call void @llvm.lifetime.start.p0(i64 4, ptr %19) #10
  store i32 0, ptr %19, align 4, !tbaa !93
  call void @llvm.lifetime.start.p0(i64 4, ptr %20) #10
  call void @llvm.lifetime.start.p0(i64 4, ptr %21) #10
  %27 = load ptr, ptr %6, align 8, !tbaa !121
  %28 = getelementptr inbounds nuw %struct.MPVEncContext, ptr %27, i32 0, i32 15
  %29 = getelementptr inbounds nuw %struct.FDCTDSPContext, ptr %28, i32 0, i32 0
  %30 = load ptr, ptr %29, align 8, !tbaa !125
  %31 = load ptr, ptr %7, align 8, !tbaa !123
  call void %30(ptr noundef %31)
  %32 = load ptr, ptr %7, align 8, !tbaa !123
  %33 = getelementptr inbounds i16, ptr %32, i64 0
  %34 = load i16, ptr %33, align 2, !tbaa !126
  %35 = sext i16 %34 to i32
  %36 = add nsw i32 %35, 2
  %37 = ashr i32 %36, 2
  %38 = trunc i32 %37 to i16
  %39 = load ptr, ptr %7, align 8, !tbaa !123
  %40 = getelementptr inbounds i16, ptr %39, i64 0
  store i16 %38, ptr %40, align 2, !tbaa !126
  store i32 1, ptr %15, align 4, !tbaa !93
  store i32 0, ptr %14, align 4, !tbaa !93
  %41 = load i32, ptr %8, align 4, !tbaa !93
  %42 = icmp slt i32 %41, 4
  br i1 %42, label %43, label %51

43:                                               ; preds = %5
  %44 = load ptr, ptr %6, align 8, !tbaa !121
  %45 = getelementptr inbounds nuw %struct.MPVEncContext, ptr %44, i32 0, i32 48
  %46 = load ptr, ptr %45, align 8, !tbaa !127
  %47 = load i32, ptr %9, align 4, !tbaa !93
  %48 = sext i32 %47 to i64
  %49 = getelementptr inbounds [64 x i32], ptr %46, i64 %48
  %50 = getelementptr inbounds [64 x i32], ptr %49, i64 0, i64 0
  br label %59

51:                                               ; preds = %5
  %52 = load ptr, ptr %6, align 8, !tbaa !121
  %53 = getelementptr inbounds nuw %struct.MPVEncContext, ptr %52, i32 0, i32 49
  %54 = load ptr, ptr %53, align 8, !tbaa !128
  %55 = load i32, ptr %9, align 4, !tbaa !93
  %56 = sext i32 %55 to i64
  %57 = getelementptr inbounds [64 x i32], ptr %54, i64 %56
  %58 = getelementptr inbounds [64 x i32], ptr %57, i64 0, i64 0
  br label %59

59:                                               ; preds = %51, %43
  %60 = phi ptr [ %50, %43 ], [ %58, %51 ]
  store ptr %60, ptr %16, align 8, !tbaa !108
  %61 = load ptr, ptr %6, align 8, !tbaa !121
  %62 = getelementptr inbounds nuw %struct.MPVEncContext, ptr %61, i32 0, i32 35
  %63 = load i32, ptr %62, align 8, !tbaa !129
  %64 = mul nsw i32 %63, 256
  store i32 %64, ptr %18, align 4, !tbaa !93
  %65 = load i32, ptr %18, align 4, !tbaa !93
  %66 = sub nsw i32 65536, %65
  %67 = sub nsw i32 %66, 1
  store i32 %67, ptr %20, align 4, !tbaa !93
  %68 = load i32, ptr %20, align 4, !tbaa !93
  %69 = shl i32 %68, 1
  store i32 %69, ptr %21, align 4, !tbaa !93
  store i32 63, ptr %11, align 4, !tbaa !93
  br label %70

70:                                               ; preds = %106, %59
  %71 = load i32, ptr %11, align 4, !tbaa !93
  %72 = load i32, ptr %15, align 4, !tbaa !93
  %73 = icmp sge i32 %71, %72
  br i1 %73, label %74, label %109

74:                                               ; preds = %70
  %75 = load ptr, ptr %17, align 8, !tbaa !111
  %76 = load i32, ptr %11, align 4, !tbaa !93
  %77 = sext i32 %76 to i64
  %78 = getelementptr inbounds i8, ptr %75, i64 %77
  %79 = load i8, ptr %78, align 1, !tbaa !116
  %80 = zext i8 %79 to i32
  store i32 %80, ptr %12, align 4, !tbaa !93
  %81 = load ptr, ptr %7, align 8, !tbaa !123
  %82 = load i32, ptr %12, align 4, !tbaa !93
  %83 = sext i32 %82 to i64
  %84 = getelementptr inbounds i16, ptr %81, i64 %83
  %85 = load i16, ptr %84, align 2, !tbaa !126
  %86 = sext i16 %85 to i32
  %87 = load ptr, ptr %16, align 8, !tbaa !108
  %88 = load i32, ptr %12, align 4, !tbaa !93
  %89 = sext i32 %88 to i64
  %90 = getelementptr inbounds i32, ptr %87, i64 %89
  %91 = load i32, ptr %90, align 4, !tbaa !93
  %92 = mul nsw i32 %86, %91
  store i32 %92, ptr %13, align 4, !tbaa !93
  %93 = load i32, ptr %13, align 4, !tbaa !93
  %94 = load i32, ptr %20, align 4, !tbaa !93
  %95 = add i32 %93, %94
  %96 = load i32, ptr %21, align 4, !tbaa !93
  %97 = icmp ugt i32 %95, %96
  br i1 %97, label %98, label %100

98:                                               ; preds = %74
  %99 = load i32, ptr %11, align 4, !tbaa !93
  store i32 %99, ptr %14, align 4, !tbaa !93
  br label %109

100:                                              ; preds = %74
  %101 = load ptr, ptr %7, align 8, !tbaa !123
  %102 = load i32, ptr %12, align 4, !tbaa !93
  %103 = sext i32 %102 to i64
  %104 = getelementptr inbounds i16, ptr %101, i64 %103
  store i16 0, ptr %104, align 2, !tbaa !126
  br label %105

105:                                              ; preds = %100
  br label %106

106:                                              ; preds = %105
  %107 = load i32, ptr %11, align 4, !tbaa !93
  %108 = add nsw i32 %107, -1
  store i32 %108, ptr %11, align 4, !tbaa !93
  br label %70, !llvm.loop !130

109:                                              ; preds = %98, %70
  %110 = load i32, ptr %15, align 4, !tbaa !93
  store i32 %110, ptr %11, align 4, !tbaa !93
  br label %111

111:                                              ; preds = %175, %109
  %112 = load i32, ptr %11, align 4, !tbaa !93
  %113 = load i32, ptr %14, align 4, !tbaa !93
  %114 = icmp sle i32 %112, %113
  br i1 %114, label %115, label %178

115:                                              ; preds = %111
  %116 = load ptr, ptr %17, align 8, !tbaa !111
  %117 = load i32, ptr %11, align 4, !tbaa !93
  %118 = sext i32 %117 to i64
  %119 = getelementptr inbounds i8, ptr %116, i64 %118
  %120 = load i8, ptr %119, align 1, !tbaa !116
  %121 = zext i8 %120 to i32
  store i32 %121, ptr %12, align 4, !tbaa !93
  %122 = load ptr, ptr %7, align 8, !tbaa !123
  %123 = load i32, ptr %12, align 4, !tbaa !93
  %124 = sext i32 %123 to i64
  %125 = getelementptr inbounds i16, ptr %122, i64 %124
  %126 = load i16, ptr %125, align 2, !tbaa !126
  %127 = sext i16 %126 to i32
  %128 = load ptr, ptr %16, align 8, !tbaa !108
  %129 = load i32, ptr %12, align 4, !tbaa !93
  %130 = sext i32 %129 to i64
  %131 = getelementptr inbounds i32, ptr %128, i64 %130
  %132 = load i32, ptr %131, align 4, !tbaa !93
  %133 = mul nsw i32 %127, %132
  store i32 %133, ptr %13, align 4, !tbaa !93
  %134 = load i32, ptr %13, align 4, !tbaa !93
  %135 = load i32, ptr %20, align 4, !tbaa !93
  %136 = add i32 %134, %135
  %137 = load i32, ptr %21, align 4, !tbaa !93
  %138 = icmp ugt i32 %136, %137
  br i1 %138, label %139, label %169

139:                                              ; preds = %115
  %140 = load i32, ptr %13, align 4, !tbaa !93
  %141 = icmp sgt i32 %140, 0
  br i1 %141, label %142, label %153

142:                                              ; preds = %139
  %143 = load i32, ptr %18, align 4, !tbaa !93
  %144 = load i32, ptr %13, align 4, !tbaa !93
  %145 = add nsw i32 %143, %144
  %146 = ashr i32 %145, 16
  store i32 %146, ptr %13, align 4, !tbaa !93
  %147 = load i32, ptr %13, align 4, !tbaa !93
  %148 = trunc i32 %147 to i16
  %149 = load ptr, ptr %7, align 8, !tbaa !123
  %150 = load i32, ptr %12, align 4, !tbaa !93
  %151 = sext i32 %150 to i64
  %152 = getelementptr inbounds i16, ptr %149, i64 %151
  store i16 %148, ptr %152, align 2, !tbaa !126
  br label %165

153:                                              ; preds = %139
  %154 = load i32, ptr %18, align 4, !tbaa !93
  %155 = load i32, ptr %13, align 4, !tbaa !93
  %156 = sub nsw i32 %154, %155
  %157 = ashr i32 %156, 16
  store i32 %157, ptr %13, align 4, !tbaa !93
  %158 = load i32, ptr %13, align 4, !tbaa !93
  %159 = sub nsw i32 0, %158
  %160 = trunc i32 %159 to i16
  %161 = load ptr, ptr %7, align 8, !tbaa !123
  %162 = load i32, ptr %12, align 4, !tbaa !93
  %163 = sext i32 %162 to i64
  %164 = getelementptr inbounds i16, ptr %161, i64 %163
  store i16 %160, ptr %164, align 2, !tbaa !126
  br label %165

165:                                              ; preds = %153, %142
  %166 = load i32, ptr %13, align 4, !tbaa !93
  %167 = load i32, ptr %19, align 4, !tbaa !93
  %168 = or i32 %167, %166
  store i32 %168, ptr %19, align 4, !tbaa !93
  br label %174

169:                                              ; preds = %115
  %170 = load ptr, ptr %7, align 8, !tbaa !123
  %171 = load i32, ptr %12, align 4, !tbaa !93
  %172 = sext i32 %171 to i64
  %173 = getelementptr inbounds i16, ptr %170, i64 %172
  store i16 0, ptr %173, align 2, !tbaa !126
  br label %174

174:                                              ; preds = %169, %165
  br label %175

175:                                              ; preds = %174
  %176 = load i32, ptr %11, align 4, !tbaa !93
  %177 = add nsw i32 %176, 1
  store i32 %177, ptr %11, align 4, !tbaa !93
  br label %111, !llvm.loop !131

178:                                              ; preds = %111
  %179 = load ptr, ptr %6, align 8, !tbaa !121
  %180 = getelementptr inbounds nuw %struct.MPVEncContext, ptr %179, i32 0, i32 38
  %181 = load i32, ptr %180, align 4, !tbaa !132
  %182 = load i32, ptr %19, align 4, !tbaa !93
  %183 = icmp slt i32 %181, %182
  %184 = zext i1 %183 to i32
  %185 = load ptr, ptr %10, align 8, !tbaa !108
  store i32 %184, ptr %185, align 4, !tbaa !93
  %186 = load ptr, ptr %6, align 8, !tbaa !121
  %187 = getelementptr inbounds nuw %struct.MPVEncContext, ptr %186, i32 0, i32 0
  %188 = getelementptr inbounds nuw %struct.MpegEncContext, ptr %187, i32 0, i32 69
  %189 = getelementptr inbounds nuw %struct.IDCTDSPContext, ptr %188, i32 0, i32 7
  %190 = load i32, ptr %189, align 8, !tbaa !133
  %191 = icmp ne i32 %190, 0
  br i1 %191, label %192, label %201

192:                                              ; preds = %178
  %193 = load ptr, ptr %7, align 8, !tbaa !123
  %194 = load ptr, ptr %6, align 8, !tbaa !121
  %195 = getelementptr inbounds nuw %struct.MPVEncContext, ptr %194, i32 0, i32 0
  %196 = getelementptr inbounds nuw %struct.MpegEncContext, ptr %195, i32 0, i32 69
  %197 = getelementptr inbounds nuw %struct.IDCTDSPContext, ptr %196, i32 0, i32 6
  %198 = getelementptr inbounds [64 x i8], ptr %197, i64 0, i64 0
  %199 = load ptr, ptr %17, align 8, !tbaa !111
  %200 = load i32, ptr %14, align 4, !tbaa !93
  call void @ff_block_permute(ptr noundef %193, ptr noundef %198, ptr noundef %199, i32 noundef %200)
  br label %201

201:                                              ; preds = %192, %178
  %202 = load i32, ptr %14, align 4, !tbaa !93
  call void @llvm.lifetime.end.p0(i64 4, ptr %21) #10
  call void @llvm.lifetime.end.p0(i64 4, ptr %20) #10
  call void @llvm.lifetime.end.p0(i64 4, ptr %19) #10
  call void @llvm.lifetime.end.p0(i64 4, ptr %18) #10
  call void @llvm.lifetime.end.p0(i64 8, ptr %17) #10
  call void @llvm.lifetime.end.p0(i64 8, ptr %16) #10
  call void @llvm.lifetime.end.p0(i64 4, ptr %15) #10
  call void @llvm.lifetime.end.p0(i64 4, ptr %14) #10
  call void @llvm.lifetime.end.p0(i64 4, ptr %13) #10
  call void @llvm.lifetime.end.p0(i64 4, ptr %12) #10
  call void @llvm.lifetime.end.p0(i64 4, ptr %11) #10
  ret i32 %202
}