; Function Attrs: nounwind uwtable
define internal range(i32 -2147483648, 2147483647) i32 @dnxhd_10bit_dct_quantize_444(ptr noundef %0, ptr noundef %1, i32 noundef %2, i32 noundef %3, ptr noundef writeonly captures(none) %4) #1 {
  %6 = getelementptr inbounds nuw i8, ptr %0, i64 208
  %7 = load ptr, ptr %6, align 8, !tbaa !154
  %8 = getelementptr inbounds nuw i8, ptr %0, i64 4904
  %9 = load ptr, ptr %8, align 8, !tbaa !155
  tail call void %9(ptr noundef %1) #11
  %10 = load i16, ptr %1, align 2, !tbaa !156
  %11 = sext i16 %10 to i32
  %12 = add nsw i32 %11, 2
  %13 = lshr i32 %12, 2
  %14 = trunc i32 %13 to i16
  store i16 %14, ptr %1, align 2, !tbaa !156
  %15 = icmp slt i32 %2, 4
  %16 = sext i32 %3 to i64
  %. = select i1 %15, i64 6656, i64 6664
  %17 = getelementptr inbounds nuw i8, ptr %0, i64 %.
  %18 = load ptr, ptr %17, align 8, !tbaa !157
  %19 = getelementptr inbounds [64 x i32], ptr %18, i64 %16
  %20 = getelementptr inbounds nuw i8, ptr %0, i64 6528
  %21 = load i32, ptr %20, align 8, !tbaa !158
  %22 = shl nsw i32 %21, 8
  %23 = sub i32 65535, %22
  %24 = shl i32 %23, 1
  br label %25

25:                                               ; preds = %5, %38
  %.071 = phi i32 [ 63, %5 ], [ %39, %38 ]
  %26 = zext nneg i32 %.071 to i64
  %27 = getelementptr inbounds nuw i8, ptr %7, i64 %26
  %28 = load i8, ptr %27, align 1, !tbaa !118
  %29 = zext i8 %28 to i64
  %30 = getelementptr inbounds nuw i16, ptr %1, i64 %29
  %31 = load i16, ptr %30, align 2, !tbaa !156
  %32 = sext i16 %31 to i32
  %33 = getelementptr inbounds nuw i32, ptr %19, i64 %29
  %34 = load i32, ptr %33, align 4, !tbaa !104
  %35 = mul nsw i32 %34, %32
  %36 = add i32 %35, %23
  %37 = icmp ugt i32 %36, %24
  br i1 %37, label %41, label %38

38:                                               ; preds = %25
  store i16 0, ptr %30, align 2, !tbaa !156
  %39 = add nsw i32 %.071, -1
  %40 = icmp samesign ugt i32 %.071, 1
  br i1 %40, label %25, label %._crit_edge, !llvm.loop !159

41:                                               ; preds = %25
  %.not72 = icmp slt i32 %.071, 1
  br i1 %.not72, label %._crit_edge, label %.lr.ph.preheader

.lr.ph.preheader:                                 ; preds = %41
  %42 = add nuw nsw i32 %.071, 1
  %wide.trip.count = zext nneg i32 %42 to i64
  br label %.lr.ph

.lr.ph:                                           ; preds = %.lr.ph.preheader, %68
  %indvars.iv = phi i64 [ 1, %.lr.ph.preheader ], [ %indvars.iv.next, %68 ]
  %.06473 = phi i32 [ 0, %.lr.ph.preheader ], [ %.165, %68 ]
  %43 = getelementptr inbounds nuw i8, ptr %7, i64 %indvars.iv
  %44 = load i8, ptr %43, align 1, !tbaa !118
  %45 = zext i8 %44 to i64
  %46 = getelementptr inbounds nuw i16, ptr %1, i64 %45
  %47 = load i16, ptr %46, align 2, !tbaa !156
  %48 = sext i16 %47 to i32
  %49 = getelementptr inbounds nuw i32, ptr %19, i64 %45
  %50 = load i32, ptr %49, align 4, !tbaa !104
  %51 = mul nsw i32 %50, %48
  %52 = add i32 %51, %23
  %53 = icmp ugt i32 %52, %24
  br i1 %53, label %54, label %67

54:                                               ; preds = %.lr.ph
  %55 = icmp sgt i32 %51, 0
  br i1 %55, label %56, label %60

56:                                               ; preds = %54
  %57 = add nsw i32 %51, %22
  %58 = ashr i32 %57, 16
  %59 = trunc nsw i32 %58 to i16
  br label %65

60:                                               ; preds = %54
  %61 = sub nsw i32 %22, %51
  %62 = ashr i32 %61, 16
  %63 = trunc nsw i32 %62 to i16
  %64 = sub i16 0, %63
  br label %65

65:                                               ; preds = %60, %56
  %storemerge = phi i16 [ %64, %60 ], [ %59, %56 ]
  %.066 = phi i32 [ %62, %60 ], [ %58, %56 ]
  store i16 %storemerge, ptr %46, align 2, !tbaa !156
  %66 = or i32 %.066, %.06473
  br label %68

67:                                               ; preds = %.lr.ph
  store i16 0, ptr %46, align 2, !tbaa !156
  br label %68

68:                                               ; preds = %65, %67
  %.165 = phi i32 [ %66, %65 ], [ %.06473, %67 ]
  %indvars.iv.next = add nuw nsw i64 %indvars.iv, 1
  %exitcond.not = icmp eq i64 %indvars.iv.next, %wide.trip.count
  br i1 %exitcond.not, label %._crit_edge, label %.lr.ph, !llvm.loop !160

._crit_edge:                                      ; preds = %38, %68, %41
  %.06778 = phi i32 [ %.071, %41 ], [ %.071, %68 ], [ 0, %38 ]
  %.064.lcssa = phi i32 [ 0, %41 ], [ %.165, %68 ], [ 0, %38 ]
  %69 = getelementptr inbounds nuw i8, ptr %0, i64 6540
  %70 = load i32, ptr %69, align 4, !tbaa !161
  %71 = icmp slt i32 %70, %.064.lcssa
  %72 = zext i1 %71 to i32
  store i32 %72, ptr %4, align 4, !tbaa !104
  %73 = getelementptr inbounds nuw i8, ptr %0, i64 2120
  %74 = load i32, ptr %73, align 8, !tbaa !162
  %.not70 = icmp eq i32 %74, 0
  br i1 %.not70, label %77, label %75

75:                                               ; preds = %._crit_edge
  %76 = getelementptr inbounds nuw i8, ptr %0, i64 2056
  tail call void @ff_block_permute(ptr noundef nonnull %1, ptr noundef nonnull %76, ptr noundef nonnull %7, i32 noundef %.06778) #11
  br label %77

77:                                               ; preds = %75, %._crit_edge
  ret i32 %.06778
}